target datalayout = "e-m:e-p270:32:32-p271:32:32-p272:64:64-i64:64-i128:128-f80:128-n8:16:32:64-S128"
target triple = "x86_64-pc-linux-gnu"

%struct.OnigMatchParamStruct = type { i32, i64, i64, ptr, ptr, ptr, i32, ptr, i32 }
%struct.CalloutData = type { i32, [5 x %struct.anon] }
%struct.anon = type { i32, %union.OnigValue }
%union.OnigValue = type { %struct.anon.0 }
%struct.anon.0 = type { ptr, ptr }

; Function Attrs: nounwind uwtable
define dso_local i32 @onig_get_callout_data_dont_clear_old(ptr noundef %0, ptr noundef %1, i32 noundef %2, i32 noundef %3, ptr noundef %4, ptr noundef %5) #0 {
  %7 = alloca i32, align 4
  %8 = alloca ptr, align 8
  %9 = alloca ptr, align 8
  %10 = alloca i32, align 4
  %11 = alloca i32, align 4
  %12 = alloca ptr, align 8
  %13 = alloca ptr, align 8
  %14 = alloca i32, align 4
  %15 = alloca ptr, align 8
  %16 = alloca i32, align 4
  store ptr %0, ptr %8, align 8, !tbaa !57
  store ptr %1, ptr %9, align 8, !tbaa !4
  store i32 %2, ptr %10, align 4, !tbaa !9
  store i32 %3, ptr %11, align 4, !tbaa !9
  store ptr %4, ptr %12, align 8, !tbaa !17
  store ptr %5, ptr %13, align 8, !tbaa !17
  call void @llvm.lifetime.start.p0(i64 4, ptr %14) #9
  call void @llvm.lifetime.start.p0(i64 8, ptr %15) #9
  %17 = load i32, ptr %10, align 4, !tbaa !9
  %18 = icmp sle i32 %17, 0
  br i1 %18, label %19, label %20

19:                                               ; preds = %6
  store i32 -30, ptr %7, align 4
  store i32 1, ptr %16, align 4
  br label %55

20:                                               ; preds = %6
  %21 = load ptr, ptr %9, align 8, !tbaa !4
  %22 = getelementptr inbounds nuw %struct.OnigMatchParamStruct, ptr %21, i32 0, i32 7
  %23 = load ptr, ptr %22, align 8, !tbaa !43
  %24 = load i32, ptr %10, align 4, !tbaa !9
  %25 = sub nsw i32 %24, 1
  %26 = sext i32 %25 to i64
  %27 = getelementptr inbounds %struct.CalloutData, ptr %23, i64 %26
  store ptr %27, ptr %15, align 8, !tbaa !17
  %28 = load ptr, ptr %15, align 8, !tbaa !17
  %29 = getelementptr inbounds nuw %struct.CalloutData, ptr %28, i32 0, i32 1
  %30 = load i32, ptr %11, align 4, !tbaa !9
  %31 = sext i32 %30 to i64
  %32 = getelementptr inbounds [5 x %struct.anon], ptr %29, i64 0, i64 %31
  %33 = getelementptr inbounds nuw %struct.anon, ptr %32, i32 0, i32 0
  %34 = load i32, ptr %33, align 8, !tbaa !55
  store i32 %34, ptr %14, align 4, !tbaa !9
  %35 = load ptr, ptr %12, align 8, !tbaa !17
  %36 = icmp ne ptr %35, null
  br i1 %36, label %37, label %40

37:                                               ; preds = %20
  %38 = load i32, ptr %14, align 4, !tbaa !9
  %39 = load ptr, ptr %12, align 8, !tbaa !17
  store i32 %38, ptr %39, align 4, !tbaa !9
  br label %40

40:                                               ; preds = %37, %20
  %41 = load ptr, ptr %13, align 8, !tbaa !17
  %42 = icmp ne ptr %41, null
  br i1 %42, label %43, label %51

43:                                               ; preds = %40
  %44 = load ptr, ptr %13, align 8, !tbaa !17
  %45 = load ptr, ptr %15, align 8, !tbaa !17
  %46 = getelementptr inbounds nuw %struct.CalloutData, ptr %45, i32 0, i32 1
  %47 = load i32, ptr %11, align 4, !tbaa !9
  %48 = sext i32 %47 to i64
  %49 = getelementptr inbounds [5 x %struct.anon], ptr %46, i64 0, i64 %48
  %50 = getelementptr inbounds nuw %struct.anon, ptr %49, i32 0, i32 1
  call void @llvm.memcpy.p0.p0.i64(ptr align 8 %44, ptr align 8 %50, i64 16, i1 false), !tbaa.struct !58
  br label %51

51:                                               ; preds = %43, %40
  %52 = load i32, ptr %14, align 4, !tbaa !9
  %53 = icmp eq i32 %52, 0
  %54 = select i1 %53, i32 1, i32 0
  store i32 %54, ptr %7, align 4
  store i32 1, ptr %16, align 4
  br label %55

55:                                               ; preds = %51, %19
  call void @llvm.lifetime.end.p0(i64 8, ptr %15) #9
  call void @llvm.lifetime.end.p0(i64 4, ptr %14) #9
  %56 = load i32, ptr %7, align 4
  ret i32 %56
}

; Function Attrs: nounwind uwtable
define dso_local i32 @onig_get_callout_data_by_tag_dont_clear_old(ptr noundef %0, ptr noundef %1, ptr noundef %2, ptr noundef %3, i32 noundef %4, ptr noundef %5, ptr noundef %6) #0 {
  %8 = alloca i32, align 4
  %9 = alloca ptr, align 8
  %10 = alloca ptr, align 8
  %11 = alloca ptr, align 8
  %12 = alloca ptr, align 8
  %13 = alloca i32, align 4
  %14 = alloca ptr, align 8
  %15 = alloca ptr, align 8
  %16 = alloca i32, align 4
  %17 = alloca i32, align 4
  store ptr %0, ptr %9, align 8, !tbaa !57
  store ptr %1, ptr %10, align 8, !tbaa !4
  store ptr %2, ptr %11, align 8, !tbaa !60
  store ptr %3, ptr %12, align 8, !tbaa !60
  store i32 %4, ptr %13, align 4, !tbaa !9
  store ptr %5, ptr %14, align 8, !tbaa !17
  store ptr %6, ptr %15, align 8, !tbaa !17
  call void @llvm.lifetime.start.p0(i64 4, ptr %16) #9
  %18 = load ptr, ptr %9, align 8, !tbaa !57
  %19 = load ptr, ptr %11, align 8, !tbaa !60
  %20 = load ptr, ptr %12, align 8, !tbaa !60
  %21 = call i32 @onig_get_callout_num_by_tag(ptr noundef %18, ptr noundef %19, ptr noundef %20)
  store i32 %21, ptr %16, align 4, !tbaa !9
  %22 = load i32, ptr %16, align 4, !tbaa !9
  %23 = icmp slt i32 %22, 0
  br i1 %23, label %24, label %26

24:                                               ; preds = %7
  %25 = load i32, ptr %16, align 4, !tbaa !9
  store i32 %25, ptr %8, align 4
  store i32 1, ptr %17, align 4
  br label %38

26:                                               ; preds = %7
  %27 = load i32, ptr %16, align 4, !tbaa !9
  %28 = icmp eq i32 %27, 0
  br i1 %28, label %29, label %30

29:                                               ; preds = %26
  store i32 -231, ptr %8, align 4
  store i32 1, ptr %17, align 4
  br label %38

30:                                               ; preds = %26
  %31 = load ptr, ptr %9, align 8, !tbaa !57
  %32 = load ptr, ptr %10, align 8, !tbaa !4
  %33 = load i32, ptr %16, align 4, !tbaa !9
  %34 = load i32, ptr %13, align 4, !tbaa !9
  %35 = load ptr, ptr %14, align 8, !tbaa !17
  %36 = load ptr, ptr %15, align 8, !tbaa !17
  %37 = call i32 @onig_get_callout_data_dont_clear_old(ptr noundef %31, ptr noundef %32, i32 noundef %33, i32 noundef %34, ptr noundef %35, ptr noundef %36)
  store i32 %37, ptr %8, align 4
  store i32 1, ptr %17, align 4
  br label %38

38:                                               ; preds = %30, %29, %24
  call void @llvm.lifetime.end.p0(i64 4, ptr %16) #9
  %39 = load i32, ptr %8, align 4
  ret i32 %39
}